; Function Attrs: nounwind uwtable
define noundef nonnull ptr @l_Lean_PrettyPrinter_Delaborator_TopDownAnalyze_nameNotRoundtrippable_containsNum___boxed(ptr noundef %0) local_unnamed_addr #1 {
  br label %2

2:                                                ; preds = %11, %1
  %.05.i = phi ptr [ %0, %1 ], [ %13, %11 ]
  %3 = ptrtoint ptr %.05.i to i64
  %4 = and i64 %3, 1
  %.not.i.i = icmp eq i64 %4, 0
  br i1 %.not.i.i, label %8, label %5

5:                                                ; preds = %2
  %6 = lshr i64 %3, 1
  %7 = trunc i64 %6 to i32
  br label %lean_obj_tag.exit.i

8:                                                ; preds = %2
  %9 = getelementptr i8, ptr %.05.i, i64 4
  %.val.i.i = load i32, ptr %9, align 4
  %10 = lshr i32 %.val.i.i, 24
  br label %lean_obj_tag.exit.i

lean_obj_tag.exit.i:                              ; preds = %8, %5
  %.0.i.i = phi i32 [ %7, %5 ], [ %10, %8 ]
  switch i32 %.0.i.i, label %l_Lean_PrettyPrinter_Delaborator_TopDownAnalyze_nameNotRoundtrippable_containsNum.exit.loopexit [
    i32 0, label %l_Lean_PrettyPrinter_Delaborator_TopDownAnalyze_nameNotRoundtrippable_containsNum.exit
    i32 1, label %11
  ]

11:                                               ; preds = %lean_obj_tag.exit.i
  %12 = getelementptr inbounds nuw i8, ptr %.05.i, i64 8
  %13 = load ptr, ptr %12, align 8, !tbaa !11
  br label %2

l_Lean_PrettyPrinter_Delaborator_TopDownAnalyze_nameNotRoundtrippable_containsNum.exit.loopexit: ; preds = %lean_obj_tag.exit.i
  br label %l_Lean_PrettyPrinter_Delaborator_TopDownAnalyze_nameNotRoundtrippable_containsNum.exit

l_Lean_PrettyPrinter_Delaborator_TopDownAnalyze_nameNotRoundtrippable_containsNum.exit: ; preds = %lean_obj_tag.exit.i, %l_Lean_PrettyPrinter_Delaborator_TopDownAnalyze_nameNotRoundtrippable_containsNum.exit.loopexit
  %.0.i = phi i64 [ 3, %l_Lean_PrettyPrinter_Delaborator_TopDownAnalyze_nameNotRoundtrippable_containsNum.exit.loopexit ], [ 1, %lean_obj_tag.exit.i ]
  %14 = ptrtoint ptr %0 to i64
  %15 = and i64 %14, 1
  %.not = icmp eq i64 %15, 0
  br i1 %.not, label %16, label %lean_dec.exit

16:                                               ; preds = %l_Lean_PrettyPrinter_Delaborator_TopDownAnalyze_nameNotRoundtrippable_containsNum.exit
  %17 = load i32, ptr %0, align 4, !tbaa !8
  %18 = icmp sgt i32 %17, 1
  br i1 %18, label %19, label %21, !prof !13

19:                                               ; preds = %16
  %20 = add nsw i32 %17, -1
  store i32 %20, ptr %0, align 4, !tbaa !8
  br label %lean_dec.exit

21:                                               ; preds = %16
  %.not.i = icmp eq i32 %17, 0
  br i1 %.not.i, label %lean_dec.exit, label %22

22:                                               ; preds = %21
  tail call void @lean_dec_ref_cold(ptr noundef nonnull %0) #7
  br label %lean_dec.exit

lean_dec.exit:                                    ; preds = %22, %21, %19, %l_Lean_PrettyPrinter_Delaborator_TopDownAnalyze_nameNotRoundtrippable_containsNum.exit
  %23 = inttoptr i64 %.0.i to ptr
  ret ptr %23
}